target datalayout = "e-m:e-p270:32:32-p271:32:32-p272:64:64-i64:64-i128:128-f80:128-n8:16:32:64-S128"
target triple = "x86_64-unknown-linux-gnu"

%"class.std::__cxx11::basic_string" = type { %"struct.std::__cxx11::basic_string<char>::_Alloc_hider", i64, %union.anon }
%"struct.std::__cxx11::basic_string<char>::_Alloc_hider" = type { ptr }
%union.anon = type { i64, [8 x i8] }
%"class.std::allocator.6" = type { i8 }
%struct.ggml_tensor = type { i32, i32, ptr, [4 x i64], [4 x i64], i32, [16 x i32], i8, ptr, [10 x ptr], i32, i64, i64, ptr, i64, ptr, [64 x i8], ptr, [8 x i8] }

@.str.277 = private unnamed_addr constant [5 x i8] c"%5ld\00", align 1
@.str.278 = private unnamed_addr constant [7 x i8] c", %5ld\00", align 1

; Function Attrs: mustprogress uwtable
define internal void @_ZL25llama_format_tensor_shapeB5cxx11PK11ggml_tensor(ptr noalias sret(%"class.std::__cxx11::basic_string") align 8 %agg.result, ptr noundef %t) #2 personality ptr @__gxx_personality_v0 {
entry:
  %result.ptr = alloca ptr, align 8
  %t.addr = alloca ptr, align 8
  %buf = alloca [256 x i8], align 16
  %i = alloca i32, align 4
  %ref.tmp = alloca %"class.std::allocator.6", align 1
  %exn.slot = alloca ptr, align 8
  %ehselector.slot = alloca i32, align 4
  store ptr %agg.result, ptr %result.ptr, align 8
  store ptr %t, ptr %t.addr, align 8
  %arraydecay = getelementptr inbounds [256 x i8], ptr %buf, i64 0, i64 0
  %0 = load ptr, ptr %t.addr, align 8
  %ne = getelementptr inbounds %struct.ggml_tensor, ptr %0, i32 0, i32 3
  %arrayidx = getelementptr inbounds [4 x i64], ptr %ne, i64 0, i64 0
  %1 = load i64, ptr %arrayidx, align 8
  %call = call i32 (ptr, i64, ptr, ...) @snprintf(ptr noundef %arraydecay, i64 noundef 256, ptr noundef @.str.277, i64 noundef %1) #3
  store i32 1, ptr %i, align 4
  br label %for.cond

for.cond:                                         ; preds = %for.inc, %entry
  %2 = load i32, ptr %i, align 4
  %cmp = icmp slt i32 %2, 4
  br i1 %cmp, label %for.body, label %for.end

for.body:                                         ; preds = %for.cond
  %arraydecay1 = getelementptr inbounds [256 x i8], ptr %buf, i64 0, i64 0
  %arraydecay2 = getelementptr inbounds [256 x i8], ptr %buf, i64 0, i64 0
  %call3 = call i64 @strlen(ptr noundef %arraydecay2) #30
  %add.ptr = getelementptr inbounds i8, ptr %arraydecay1, i64 %call3
  %arraydecay4 = getelementptr inbounds [256 x i8], ptr %buf, i64 0, i64 0
  %call5 = call i64 @strlen(ptr noundef %arraydecay4) #30
  %sub = sub i64 256, %call5
  %3 = load ptr, ptr %t.addr, align 8
  %ne6 = getelementptr inbounds %struct.ggml_tensor, ptr %3, i32 0, i32 3
  %4 = load i32, ptr %i, align 4
  %idxprom = sext i32 %4 to i64
  %arrayidx7 = getelementptr inbounds [4 x i64], ptr %ne6, i64 0, i64 %idxprom
  %5 = load i64, ptr %arrayidx7, align 8
  %call8 = call i32 (ptr, i64, ptr, ...) @snprintf(ptr noundef %add.ptr, i64 noundef %sub, ptr noundef @.str.278, i64 noundef %5) #3
  br label %for.inc

for.inc:                                          ; preds = %for.body
  %6 = load i32, ptr %i, align 4
  %inc = add nsw i32 %6, 1
  store i32 %inc, ptr %i, align 4
  br label %for.cond, !llvm.loop !151

for.end:                                          ; preds = %for.cond
  %arraydecay9 = getelementptr inbounds [256 x i8], ptr %buf, i64 0, i64 0
  call void @_ZNSaIcEC1Ev(ptr noundef nonnull align 1 dereferenceable(1) %ref.tmp) #3
  invoke void @_ZNSt7__cxx1112basic_stringIcSt11char_traitsIcESaIcEEC1EPKcRKS3_(ptr noundef nonnull align 8 dereferenceable(32) %agg.result, ptr noundef %arraydecay9, ptr noundef nonnull align 1 dereferenceable(1) %ref.tmp)
          to label %invoke.cont unwind label %lpad

invoke.cont:                                      ; preds = %for.end
  call void @_ZNSaIcED1Ev(ptr noundef nonnull align 1 dereferenceable(1) %ref.tmp) #3
  ret void

lpad:                                             ; preds = %for.end
  %7 = landingpad { ptr, i32 }
          cleanup
  %8 = extractvalue { ptr, i32 } %7, 0
  store ptr %8, ptr %exn.slot, align 8
  %9 = extractvalue { ptr, i32 } %7, 1
  store i32 %9, ptr %ehselector.slot, align 4
  call void @_ZNSaIcED1Ev(ptr noundef nonnull align 1 dereferenceable(1) %ref.tmp) #3
  br label %eh.resume

eh.resume:                                        ; preds = %lpad
  %exn = load ptr, ptr %exn.slot, align 8
  %sel = load i32, ptr %ehselector.slot, align 4
  %lpad.val = insertvalue { ptr, i32 } poison, ptr %exn, 0
  %lpad.val10 = insertvalue { ptr, i32 } %lpad.val, i32 %sel, 1
  resume { ptr, i32 } %lpad.val10
}