; Function Attrs: mustprogress uwtable
define internal fastcc void @_ZL25llama_format_tensor_shapeB5cxx11PK11ggml_tensor(ptr noalias align 8 %agg.result, ptr nocapture noundef readonly %t) unnamed_addr #2 personality ptr @__gxx_personality_v0 {
entry:
  %buf = alloca [256 x i8], align 16
  %ref.tmp = alloca %"class.std::allocator.6", align 1
  %ne = getelementptr inbounds i8, ptr %t, i64 16
  %0 = load i64, ptr %ne, align 8
  %call = call i32 (ptr, i64, ptr, ...) @snprintf(ptr noundef nonnull dereferenceable(1) %buf, i64 noundef 256, ptr noundef nonnull @.str.277, i64 noundef %0) #44
  br label %for.body

for.body:                                         ; preds = %entry, %for.body
  %indvars.iv = phi i64 [ 1, %entry ], [ %indvars.iv.next, %for.body ]
  %call3 = call i64 @strlen(ptr noundef nonnull dereferenceable(1) %buf) #43
  %add.ptr = getelementptr inbounds i8, ptr %buf, i64 %call3
  %sub = sub i64 256, %call3
  %arrayidx7 = getelementptr inbounds [4 x i64], ptr %ne, i64 0, i64 %indvars.iv
  %1 = load i64, ptr %arrayidx7, align 8
  %call8 = call i32 (ptr, i64, ptr, ...) @snprintf(ptr noundef nonnull %add.ptr, i64 noundef %sub, ptr noundef nonnull @.str.278, i64 noundef %1) #44
  %indvars.iv.next = add nuw nsw i64 %indvars.iv, 1
  %exitcond.not = icmp eq i64 %indvars.iv.next, 4
  br i1 %exitcond.not, label %for.end, label %for.body, !llvm.loop !300

for.end:                                          ; preds = %for.body
  call void @_ZNSaIcEC1Ev(ptr noundef nonnull align 1 dereferenceable(1) %ref.tmp) #44
  invoke void @_ZNSt7__cxx1112basic_stringIcSt11char_traitsIcESaIcEEC1EPKcRKS3_(ptr noundef nonnull align 8 dereferenceable(32) %agg.result, ptr noundef nonnull %buf, ptr noundef nonnull align 1 dereferenceable(1) %ref.tmp)
          to label %invoke.cont unwind label %lpad

invoke.cont:                                      ; preds = %for.end
  call void @_ZNSaIcED1Ev(ptr noundef nonnull align 1 dereferenceable(1) %ref.tmp) #44
  ret void

lpad:                                             ; preds = %for.end
  %2 = landingpad { ptr, i32 }
          cleanup
  call void @_ZNSaIcED1Ev(ptr noundef nonnull align 1 dereferenceable(1) %ref.tmp) #44
  resume { ptr, i32 } %2
}